target datalayout = "e-m:e-p270:32:32-p271:32:32-p272:64:64-i64:64-i128:128-f80:128-n8:16:32:64-S128"
target triple = "x86_64-pc-linux-gnu"

%"struct.std::array.2" = type { [4 x i64] }
%"class.arrow::GenericBasicDecimal.1" = type { %"struct.std::array.2" }
%"struct.arrow::bit_util::little_endian::detail::Writer" = type { ptr }
%"class.arrow::BasicDecimal256" = type { %"class.arrow::GenericBasicDecimal.1" }
%"struct.arrow::bit_util::little_endian::detail::Reader" = type { ptr }

; Function Attrs: mustprogress nounwind uwtable
define linkonce_odr noundef nonnull align 8 dereferenceable(8) ptr @_ZNSt14__array_traitsImLm4EE6_S_refERA4_Kmm(ptr noundef nonnull align 8 dereferenceable(32) %0, i64 noundef %1) #0 comdat align 2 {
  %3 = alloca ptr, align 8
  %4 = alloca i64, align 8
  store ptr %0, ptr %3, align 8, !tbaa !239
  store i64 %1, ptr %4, align 8, !tbaa !8
  %5 = load ptr, ptr %3, align 8, !tbaa !239
  %6 = load i64, ptr %4, align 8, !tbaa !8
  %7 = getelementptr inbounds nuw [4 x i64], ptr %5, i64 0, i64 %6
  ret ptr %7
}

; Function Attrs: mustprogress nounwind uwtable
define linkonce_odr noundef nonnull align 8 dereferenceable(8) ptr @_ZNSt5arrayImLm4EEixEm(ptr noundef nonnull align 8 dereferenceable(32) %0, i64 noundef %1) #0 comdat align 2 {
  %3 = alloca ptr, align 8
  %4 = alloca i64, align 8
  store ptr %0, ptr %3, align 8, !tbaa !20
  store i64 %1, ptr %4, align 8, !tbaa !8
  %5 = load ptr, ptr %3, align 8
  %6 = getelementptr inbounds nuw %"struct.std::array.2", ptr %5, i32 0, i32 0
  %7 = load i64, ptr %4, align 8, !tbaa !8
  %8 = call noundef nonnull align 8 dereferenceable(8) ptr @_ZNSt14__array_traitsImLm4EE6_S_refERA4_Kmm(ptr noundef nonnull align 8 dereferenceable(32) %6, i64 noundef %7) #12
  ret ptr %8
}

; Function Attrs: mustprogress nounwind uwtable
define linkonce_odr noundef nonnull align 8 dereferenceable(8) ptr @_ZNKSt5arrayImLm4EEixEm(ptr noundef nonnull align 8 dereferenceable(32) %0, i64 noundef %1) #0 comdat align 2 {
  %3 = alloca ptr, align 8
  %4 = alloca i64, align 8
  store ptr %0, ptr %3, align 8, !tbaa !20
  store i64 %1, ptr %4, align 8, !tbaa !8
  %5 = load ptr, ptr %3, align 8
  %6 = getelementptr inbounds nuw %"struct.std::array.2", ptr %5, i32 0, i32 0
  %7 = load i64, ptr %4, align 8, !tbaa !8
  %8 = call noundef nonnull align 8 dereferenceable(8) ptr @_ZNSt14__array_traitsImLm4EE6_S_refERA4_Kmm(ptr noundef nonnull align 8 dereferenceable(32) %6, i64 noundef %7) #12
  ret ptr %8
}

; Function Attrs: mustprogress nounwind uwtable
define linkonce_odr void @_ZN5arrow8bit_util13little_endian6detail6ReaderImLm4EEC2ERKSt5arrayImLm4EE(ptr noundef nonnull align 8 dereferenceable(8) %0, ptr noundef nonnull align 8 dereferenceable(32) %1) unnamed_addr #0 comdat align 2 {
  %3 = alloca ptr, align 8
  %4 = alloca ptr, align 8
  store ptr %0, ptr %3, align 8, !tbaa !247
  store ptr %1, ptr %4, align 8, !tbaa !20
  %5 = load ptr, ptr %3, align 8
  %6 = getelementptr inbounds nuw %"struct.arrow::bit_util::little_endian::detail::Reader", ptr %5, i32 0, i32 0
  %7 = load ptr, ptr %4, align 8, !tbaa !20
  store ptr %7, ptr %6, align 8, !tbaa !20
  ret void
}

; Function Attrs: mustprogress nounwind uwtable
define linkonce_odr void @_ZN5arrow8bit_util13little_endian6detail6WriterImLm4EEC2EPSt5arrayImLm4EE(ptr noundef nonnull align 8 dereferenceable(8) %0, ptr noundef %1) unnamed_addr #0 comdat align 2 {
  %3 = alloca ptr, align 8
  %4 = alloca ptr, align 8
  store ptr %0, ptr %3, align 8, !tbaa !242
  store ptr %1, ptr %4, align 8, !tbaa !20
  %5 = load ptr, ptr %3, align 8
  %6 = getelementptr inbounds nuw %"struct.arrow::bit_util::little_endian::detail::Writer", ptr %5, i32 0, i32 0
  %7 = load ptr, ptr %4, align 8, !tbaa !20
  store ptr %7, ptr %6, align 8, !tbaa !244
  ret void
}

; Function Attrs: mustprogress nounwind uwtable
define linkonce_odr noundef nonnull align 8 dereferenceable(8) ptr @_ZN5arrow8bit_util13little_endian6detail6WriterImLm4EEixEm(ptr noundef nonnull align 8 dereferenceable(8) %0, i64 noundef %1) #0 comdat align 2 {
  %3 = alloca ptr, align 8
  %4 = alloca i64, align 8
  store ptr %0, ptr %3, align 8, !tbaa !242
  store i64 %1, ptr %4, align 8, !tbaa !8
  %5 = load ptr, ptr %3, align 8
  %6 = getelementptr inbounds nuw %"struct.arrow::bit_util::little_endian::detail::Writer", ptr %5, i32 0, i32 0
  %7 = load ptr, ptr %6, align 8, !tbaa !244
  %8 = load i64, ptr %4, align 8, !tbaa !8
  %9 = call noundef nonnull align 8 dereferenceable(8) ptr @_ZNSt5arrayImLm4EEixEm(ptr noundef nonnull align 8 dereferenceable(32) %7, i64 noundef %8) #12
  ret ptr %9
}

; Function Attrs: mustprogress nounwind uwtable
define linkonce_odr noundef nonnull align 8 dereferenceable(8) ptr @_ZNK5arrow8bit_util13little_endian6detail6ReaderImLm4EEixEm(ptr noundef nonnull align 8 dereferenceable(8) %0, i64 noundef %1) #0 comdat align 2 {
  %3 = alloca ptr, align 8
  %4 = alloca i64, align 8
  store ptr %0, ptr %3, align 8, !tbaa !247
  store i64 %1, ptr %4, align 8, !tbaa !8
  %5 = load ptr, ptr %3, align 8
  %6 = getelementptr inbounds nuw %"struct.arrow::bit_util::little_endian::detail::Reader", ptr %5, i32 0, i32 0
  %7 = load ptr, ptr %6, align 8, !tbaa !249
  %8 = load i64, ptr %4, align 8, !tbaa !8
  %9 = call noundef nonnull align 8 dereferenceable(8) ptr @_ZNKSt5arrayImLm4EEixEm(ptr noundef nonnull align 8 dereferenceable(32) %7, i64 noundef %8) #12
  ret ptr %9
}

; Function Attrs: mustprogress nounwind willreturn memory(none) uwtable
define linkonce_odr noundef i64 @_ZNKSt5arrayImLm4EE4sizeEv(ptr noundef nonnull align 8 dereferenceable(32) %0) #5 comdat align 2 {
  %2 = alloca ptr, align 8
  store ptr %0, ptr %2, align 8, !tbaa !20
  ret i64 4
}

; Function Attrs: inlinehint mustprogress uwtable
define internal ptr @_ZN5arrow8bit_util13little_endianL4MakeImLm4EEENS1_6detail6ReaderIT_XT0_EEERKSt5arrayIS5_XT0_EE(ptr noundef nonnull align 8 dereferenceable(32) %0) #8 {
  %2 = alloca %"struct.arrow::bit_util::little_endian::detail::Reader", align 8
  %3 = alloca ptr, align 8
  store ptr %0, ptr %3, align 8, !tbaa !20
  %4 = load ptr, ptr %3, align 8, !tbaa !20
  call void @_ZN5arrow8bit_util13little_endian6detail6ReaderImLm4EEC2ERKSt5arrayImLm4EE(ptr noundef nonnull align 8 dereferenceable(8) %2, ptr noundef nonnull align 8 dereferenceable(32) %4)
  %5 = getelementptr inbounds nuw %"struct.arrow::bit_util::little_endian::detail::Reader", ptr %2, i32 0, i32 0
  %6 = load ptr, ptr %5, align 8
  ret ptr %6
}

; Function Attrs: inlinehint mustprogress uwtable
define internal ptr @_ZN5arrow8bit_util13little_endianL4MakeImLm4EEENS1_6detail6WriterIT_XT0_EEEPSt5arrayIS5_XT0_EE(ptr noundef %0) #8 {
  %2 = alloca %"struct.arrow::bit_util::little_endian::detail::Writer", align 8
  %3 = alloca ptr, align 8
  store ptr %0, ptr %3, align 8, !tbaa !20
  %4 = load ptr, ptr %3, align 8, !tbaa !20
  call void @_ZN5arrow8bit_util13little_endian6detail6WriterImLm4EEC2EPSt5arrayImLm4EE(ptr noundef nonnull align 8 dereferenceable(8) %2, ptr noundef %4)
  %5 = getelementptr inbounds nuw %"struct.arrow::bit_util::little_endian::detail::Writer", ptr %2, i32 0, i32 0
  %6 = load ptr, ptr %5, align 8
  ret ptr %6
}

; Function Attrs: mustprogress uwtable
define noundef nonnull align 8 dereferenceable(32) ptr @_ZN5arrow15BasicDecimal256pLERKS0_(ptr noundef nonnull align 8 dereferenceable(32) %0, ptr noundef nonnull align 8 dereferenceable(32) %1) #6 align 2 {
  %3 = alloca ptr, align 8
  %4 = alloca ptr, align 8
  %5 = alloca %"struct.arrow::bit_util::little_endian::detail::Writer", align 8
  %6 = alloca %"struct.arrow::bit_util::little_endian::detail::Reader", align 8
  %7 = alloca i64, align 8
  %8 = alloca i64, align 8
  %9 = alloca i64, align 8
  %10 = alloca i64, align 8
  store ptr %0, ptr %3, align 8, !tbaa !237
  store ptr %1, ptr %4, align 8, !tbaa !237
  %11 = load ptr, ptr %3, align 8
  call void @llvm.lifetime.start.p0(i64 8, ptr %5) #12
  %12 = getelementptr inbounds nuw %"class.arrow::GenericBasicDecimal.1", ptr %11, i32 0, i32 0
  %13 = call ptr @_ZN5arrow8bit_util13little_endianL4MakeImLm4EEENS1_6detail6WriterIT_XT0_EEEPSt5arrayIS5_XT0_EE(ptr noundef %12)
  %14 = getelementptr inbounds nuw %"struct.arrow::bit_util::little_endian::detail::Writer", ptr %5, i32 0, i32 0
  store ptr %13, ptr %14, align 8
  call void @llvm.lifetime.start.p0(i64 8, ptr %6) #12
  %15 = load ptr, ptr %4, align 8, !tbaa !237
  %16 = getelementptr inbounds nuw %"class.arrow::GenericBasicDecimal.1", ptr %15, i32 0, i32 0
  %17 = call ptr @_ZN5arrow8bit_util13little_endianL4MakeImLm4EEENS1_6detail6ReaderIT_XT0_EEERKSt5arrayIS5_XT0_EE(ptr noundef nonnull align 8 dereferenceable(32) %16)
  %18 = getelementptr inbounds nuw %"struct.arrow::bit_util::little_endian::detail::Reader", ptr %6, i32 0, i32 0
  store ptr %17, ptr %18, align 8
  call void @llvm.lifetime.start.p0(i64 8, ptr %7) #12
  store i64 0, ptr %7, align 8, !tbaa !8
  call void @llvm.lifetime.start.p0(i64 8, ptr %8) #12
  store i64 0, ptr %8, align 8, !tbaa !8
  br label %19

19:                                               ; preds = %56, %2
  %20 = load i64, ptr %8, align 8, !tbaa !8
  %21 = getelementptr inbounds nuw %"class.arrow::GenericBasicDecimal.1", ptr %11, i32 0, i32 0
  %22 = call noundef i64 @_ZNKSt5arrayImLm4EE4sizeEv(ptr noundef nonnull align 8 dereferenceable(32) %21) #14
  %23 = icmp ult i64 %20, %22
  br i1 %23, label %25, label %24

24:                                               ; preds = %19
  call void @llvm.lifetime.end.p0(i64 8, ptr %8) #12
  br label %59

25:                                               ; preds = %19
  call void @llvm.lifetime.start.p0(i64 8, ptr %9) #12
  %26 = load i64, ptr %8, align 8, !tbaa !8
  %27 = call noundef nonnull align 8 dereferenceable(8) ptr @_ZNK5arrow8bit_util13little_endian6detail6ReaderImLm4EEixEm(ptr noundef nonnull align 8 dereferenceable(8) %6, i64 noundef %26)
  %28 = load i64, ptr %27, align 8, !tbaa !8
  store i64 %28, ptr %9, align 8, !tbaa !8
  call void @llvm.lifetime.start.p0(i64 8, ptr %10) #12
  %29 = load i64, ptr %9, align 8, !tbaa !8
  %30 = load i64, ptr %7, align 8, !tbaa !8
  %31 = add i64 %29, %30
  store i64 %31, ptr %10, align 8, !tbaa !8
  store i64 0, ptr %7, align 8, !tbaa !8
  %32 = load i64, ptr %10, align 8, !tbaa !8
  %33 = load i64, ptr %9, align 8, !tbaa !8
  %34 = icmp ult i64 %32, %33
  br i1 %34, label %35, label %38

35:                                               ; preds = %25
  %36 = load i64, ptr %7, align 8, !tbaa !8
  %37 = add i64 %36, 1
  store i64 %37, ptr %7, align 8, !tbaa !8
  br label %38

38:                                               ; preds = %35, %25
  %39 = load i64, ptr %8, align 8, !tbaa !8
  %40 = call noundef nonnull align 8 dereferenceable(8) ptr @_ZN5arrow8bit_util13little_endian6detail6WriterImLm4EEixEm(ptr noundef nonnull align 8 dereferenceable(8) %5, i64 noundef %39)
  %41 = load i64, ptr %40, align 8, !tbaa !8
  %42 = load i64, ptr %10, align 8, !tbaa !8
  %43 = add i64 %42, %41
  store i64 %43, ptr %10, align 8, !tbaa !8
  %44 = load i64, ptr %10, align 8, !tbaa !8
  %45 = load i64, ptr %8, align 8, !tbaa !8
  %46 = call noundef nonnull align 8 dereferenceable(8) ptr @_ZN5arrow8bit_util13little_endian6detail6WriterImLm4EEixEm(ptr noundef nonnull align 8 dereferenceable(8) %5, i64 noundef %45)
  %47 = load i64, ptr %46, align 8, !tbaa !8
  %48 = icmp ult i64 %44, %47
  br i1 %48, label %49, label %52

49:                                               ; preds = %38
  %50 = load i64, ptr %7, align 8, !tbaa !8
  %51 = add i64 %50, 1
  store i64 %51, ptr %7, align 8, !tbaa !8
  br label %52

52:                                               ; preds = %49, %38
  %53 = load i64, ptr %10, align 8, !tbaa !8
  %54 = load i64, ptr %8, align 8, !tbaa !8
  %55 = call noundef nonnull align 8 dereferenceable(8) ptr @_ZN5arrow8bit_util13little_endian6detail6WriterImLm4EEixEm(ptr noundef nonnull align 8 dereferenceable(8) %5, i64 noundef %54)
  store i64 %53, ptr %55, align 8, !tbaa !8
  call void @llvm.lifetime.end.p0(i64 8, ptr %10) #12
  call void @llvm.lifetime.end.p0(i64 8, ptr %9) #12
  br label %56

56:                                               ; preds = %52
  %57 = load i64, ptr %8, align 8, !tbaa !8
  %58 = add i64 %57, 1
  store i64 %58, ptr %8, align 8, !tbaa !8
  br label %19, !llvm.loop !246

59:                                               ; preds = %24
  call void @llvm.lifetime.end.p0(i64 8, ptr %7) #12
  call void @llvm.lifetime.end.p0(i64 8, ptr %6) #12
  call void @llvm.lifetime.end.p0(i64 8, ptr %5) #12
  ret ptr %11
}

; Function Attrs: mustprogress uwtable
define void @_ZN5arrowplERKNS_15BasicDecimal256ES2_(ptr dead_on_unwind noalias writable sret(%"class.arrow::BasicDecimal256") align 8 %0, ptr noundef nonnull align 8 dereferenceable(32) %1, ptr noundef nonnull align 8 dereferenceable(32) %2) #6 {
  %4 = alloca ptr, align 8
  %5 = alloca ptr, align 8
  store ptr %1, ptr %4, align 8, !tbaa !237
  store ptr %2, ptr %5, align 8, !tbaa !237
  %6 = load ptr, ptr %4, align 8, !tbaa !237
  call void @llvm.memcpy.p0.p0.i64(ptr align 8 %0, ptr align 8 %6, i64 32, i1 false)
  %7 = load ptr, ptr %5, align 8, !tbaa !237
  %8 = call noundef nonnull align 8 dereferenceable(32) ptr @_ZN5arrow15BasicDecimal256pLERKS0_(ptr noundef nonnull align 8 dereferenceable(32) %0, ptr noundef nonnull align 8 dereferenceable(32) %7)
  ret void
}