; Function Attrs: mustprogress nofree norecurse nosync nounwind memory(argmem: readwrite) uwtable
define void @_ZN5arrowplERKNS_15BasicDecimal256ES2_(ptr dead_on_unwind noalias writable sret(%"class.arrow::BasicDecimal256") align 8 captures(none) initializes((0, 32)) %0, ptr noundef nonnull readonly align 8 captures(none) dereferenceable(32) %1, ptr noundef nonnull readonly align 8 captures(none) dereferenceable(32) %2) local_unnamed_addr #8 {
  tail call void @llvm.memcpy.p0.p0.i64(ptr noundef nonnull align 8 dereferenceable(32) %0, ptr noundef nonnull align 8 dereferenceable(32) %1, i64 32, i1 false)
  br label %4

4:                                                ; preds = %4, %3
  %.021.i = phi i64 [ 0, %3 ], [ %.2.i, %4 ]
  %.01620.i = phi i64 [ 0, %3 ], [ %14, %4 ]
  %5 = getelementptr inbounds nuw [4 x i64], ptr %2, i64 0, i64 %.01620.i
  %6 = load i64, ptr %5, align 8, !tbaa !7
  %7 = add i64 %6, %.021.i
  %8 = icmp ult i64 %7, %6
  %spec.select.i = zext i1 %8 to i64
  %9 = getelementptr inbounds nuw [4 x i64], ptr %0, i64 0, i64 %.01620.i
  %10 = load i64, ptr %9, align 8, !tbaa !7
  %11 = add i64 %7, %10
  %12 = icmp ult i64 %11, %10
  %13 = select i1 %8, i64 2, i64 1
  %.2.i = select i1 %12, i64 %13, i64 %spec.select.i
  store i64 %11, ptr %9, align 8, !tbaa !7
  %14 = add nuw nsw i64 %.01620.i, 1
  %exitcond.not.i = icmp eq i64 %14, 4
  br i1 %exitcond.not.i, label %_ZN5arrow15BasicDecimal256pLERKS0_.exit, label %4, !llvm.loop !30

_ZN5arrow15BasicDecimal256pLERKS0_.exit:          ; preds = %4
  ret void
}